; Function Attrs: mustprogress uwtable
define hidden void @_ZN3smt18quantifier_manager3popEj(ptr noundef nonnull align 8 captures(none) dereferenceable(13) %0, i32 noundef %1) local_unnamed_addr #4 align 2 {
  %3 = getelementptr inbounds nuw i8, ptr %0, i64 12
  %4 = load i8, ptr %3, align 4, !tbaa !89, !range !38, !noundef !39
  %5 = trunc nuw i8 %4 to i1
  br i1 %5, label %6, label %10

6:                                                ; preds = %2
  %7 = getelementptr inbounds nuw i8, ptr %0, i64 8
  %8 = load i32, ptr %7, align 8, !tbaa !88
  %9 = sub i32 %8, %1
  store i32 %9, ptr %7, align 8, !tbaa !88
  br label %18

10:                                               ; preds = %2
  %11 = load ptr, ptr %0, align 8, !tbaa !82
  %12 = getelementptr inbounds nuw i8, ptr %11, i64 1160
  %13 = load ptr, ptr %12, align 8, !tbaa !85
  %14 = load ptr, ptr %13, align 8, !tbaa !56
  %15 = getelementptr inbounds nuw i8, ptr %14, i64 160
  %16 = load ptr, ptr %15, align 8
  tail call void %16(ptr noundef nonnull align 8 dereferenceable(8) %13, i32 noundef %1)
  %17 = getelementptr inbounds nuw i8, ptr %11, i64 24
  tail call void @_ZN3smt8qi_queue9pop_scopeEj(ptr noundef nonnull align 8 dereferenceable(1048) %17, i32 noundef %1)
  br label %18

18:                                               ; preds = %10, %6
  ret void
}